; Function Attrs: mustprogress nounwind uwtable
define void @_ZN5faiss25IndexIVFResidualQuantizerD2Ev(ptr noundef nonnull align 8 dereferenceable(712) %0) unnamed_addr #0 align 2 personality ptr @__gxx_personality_v0 {
  store ptr getelementptr inbounds ({ [35 x ptr], [6 x ptr] }, ptr @_ZTVN5faiss25IndexIVFResidualQuantizerE, i64 0, i32 0, i64 2), ptr %0, align 8
  %2 = getelementptr inbounds i8, ptr %0, i64 40
  store ptr getelementptr inbounds ({ [35 x ptr], [6 x ptr] }, ptr @_ZTVN5faiss25IndexIVFResidualQuantizerE, i64 0, i32 1, i64 2), ptr %2, align 8
  %3 = getelementptr inbounds i8, ptr %0, i64 280
  store ptr getelementptr inbounds ({ [10 x ptr] }, ptr @_ZTVN5faiss17ResidualQuantizerE, i64 0, i32 0, i64 2), ptr %3, align 8
  %4 = getelementptr inbounds i8, ptr %0, i64 688
  %5 = load ptr, ptr %4, align 8
  %.not.i.i.i.i = icmp eq ptr %5, null
  br i1 %.not.i.i.i.i, label %_ZNSt6vectorIfSaIfEED2Ev.exit.i, label %6

6:                                                ; preds = %1
  tail call void @_ZdlPv(ptr noundef nonnull %5) #23
  br label %_ZNSt6vectorIfSaIfEED2Ev.exit.i

_ZNSt6vectorIfSaIfEED2Ev.exit.i:                  ; preds = %6, %1
  %7 = getelementptr inbounds i8, ptr %0, i64 664
  %8 = load ptr, ptr %7, align 8
  %.not.i.i.i1.i = icmp eq ptr %8, null
  br i1 %.not.i.i.i1.i, label %_ZN5faiss17ResidualQuantizerD2Ev.exit, label %9

9:                                                ; preds = %_ZNSt6vectorIfSaIfEED2Ev.exit.i
  tail call void @_ZdlPv(ptr noundef nonnull %8) #23
  br label %_ZN5faiss17ResidualQuantizerD2Ev.exit

_ZN5faiss17ResidualQuantizerD2Ev.exit:            ; preds = %_ZNSt6vectorIfSaIfEED2Ev.exit.i, %9
  tail call void @_ZN5faiss17AdditiveQuantizerD2Ev(ptr noundef nonnull align 8 dereferenceable(308) %3) #9
  tail call void @_ZN5faiss8IndexIVFD2Ev(ptr noundef nonnull align 8 dereferenceable(257) %0) #9
  ret void
}